target datalayout = "e-m:e-p270:32:32-p271:32:32-p272:64:64-i64:64-i128:128-f80:128-n8:16:32:64-S128"
target triple = "x86_64-pc-linux-gnu"

%struct.AVFilterContext = type { ptr, ptr, ptr, ptr, ptr, i32, ptr, ptr, i32, ptr, ptr, i32, i32, ptr, ptr, ptr, ptr, i32, ptr, i32, i32 }
%struct.TestSourceContext = type { ptr, i32, i32, i32, i32, i32, %struct.AVRational, %struct.AVRational, i64, i64, %struct.AVRational, i32, i32, ptr, ptr, i32, i32, [4 x i8], i32, %struct.FFDrawContext, %struct.FFDrawColor, [4 x i8], [4 x i8], i32, i32, i32, i32, i32, i32, i32, i32, i32, i32, i32, i32, i32, i32, i32, i32, i32, i32, i32, ptr, ptr }
%struct.AVRational = type { i32, i32 }
%struct.FFDrawContext = type { ptr, i32, i32, [4 x i32], [4 x i8], [4 x i8], i8, i8, i32, i32, i32, [3 x [3 x double]] }
%struct.FFDrawColor = type { [4 x i8], [4 x %union.anon.2] }
%union.anon.2 = type { [4 x i32] }
%struct.AVChannelLayout = type { i32, i32, %union.anon.1, ptr }
%union.anon.1 = type { i64 }
%struct.AVFrame = type { [8 x ptr], [8 x i32], ptr, i32, i32, i32, i32, i32, %struct.AVRational, i64, i64, %struct.AVRational, i32, ptr, i32, i32, [8 x ptr], ptr, i32, ptr, i32, i32, i32, i32, i32, i32, i32, i64, ptr, i32, ptr, ptr, i64, i64, i64, i64, ptr, %struct.AVChannelLayout, i64 }
%struct.AVPixFmtDescriptor = type { ptr, i8, i8, i8, i64, [4 x %struct.AVComponentDescriptor], ptr }
%struct.AVComponentDescriptor = type { i32, i32, i32, i32, i32 }

@black0 = internal constant [4 x i8] c"\10\80\80\FF", align 1
@rainbow100 = internal constant [7 x [4 x i8]] [[4 x i8] c"\EB\80\80\FF", [4 x i8] c"\D2\10\92\FF", [4 x i8] c"\AA\A6\10\FF", [4 x i8] c"\916\22\FF", [4 x i8] c"j\CA\DE\FF", [4 x i8] c"QZ\F0\FF", [4 x i8] c")\F0n\FF"], align 16

; Function Attrs: nounwind uwtable
define internal void @pal100bars_fill_picture(ptr noundef %0, ptr noundef %1) #1 {
  %3 = alloca ptr, align 8
  %4 = alloca ptr, align 8
  %5 = alloca ptr, align 8
  %6 = alloca i32, align 4
  %7 = alloca i32, align 4
  %8 = alloca i32, align 4
  %9 = alloca ptr, align 8
  store ptr %0, ptr %3, align 8, !tbaa !4
  store ptr %1, ptr %4, align 8, !tbaa !55
  call void @llvm.lifetime.start.p0(i64 8, ptr %5) #15
  %10 = load ptr, ptr %3, align 8, !tbaa !4
  %11 = getelementptr inbounds nuw %struct.AVFilterContext, ptr %10, i32 0, i32 9
  %12 = load ptr, ptr %11, align 8, !tbaa !9
  store ptr %12, ptr %5, align 8, !tbaa !22
  call void @llvm.lifetime.start.p0(i64 4, ptr %6) #15
  call void @llvm.lifetime.start.p0(i64 4, ptr %7) #15
  call void @llvm.lifetime.start.p0(i64 4, ptr %8) #15
  store i32 0, ptr %8, align 4, !tbaa !36
  call void @llvm.lifetime.start.p0(i64 8, ptr %9) #15
  %13 = load ptr, ptr %4, align 8, !tbaa !55
  %14 = getelementptr inbounds nuw %struct.AVFrame, ptr %13, i32 0, i32 6
  %15 = load i32, ptr %14, align 4, !tbaa !89
  %16 = call ptr @av_pix_fmt_desc_get(i32 noundef %15)
  store ptr %16, ptr %9, align 8, !tbaa !90
  %17 = load ptr, ptr %5, align 8, !tbaa !22
  %18 = getelementptr inbounds nuw %struct.TestSourceContext, ptr %17, i32 0, i32 1
  %19 = load i32, ptr %18, align 8, !tbaa !46
  %20 = add nsw i32 %19, 7
  %21 = sdiv i32 %20, 8
  %22 = load ptr, ptr %9, align 8, !tbaa !90
  %23 = getelementptr inbounds nuw %struct.AVPixFmtDescriptor, ptr %22, i32 0, i32 2
  %24 = load i8, ptr %23, align 1, !tbaa !147
  %25 = zext i8 %24 to i32
  %26 = shl i32 1, %25
  %27 = add nsw i32 %21, %26
  %28 = sub nsw i32 %27, 1
  %29 = load ptr, ptr %9, align 8, !tbaa !90
  %30 = getelementptr inbounds nuw %struct.AVPixFmtDescriptor, ptr %29, i32 0, i32 2
  %31 = load i8, ptr %30, align 1, !tbaa !147
  %32 = zext i8 %31 to i32
  %33 = shl i32 1, %32
  %34 = sub nsw i32 %33, 1
  %35 = xor i32 %34, -1
  %36 = and i32 %28, %35
  store i32 %36, ptr %6, align 4, !tbaa !36
  store i32 0, ptr %7, align 4, !tbaa !36
  br label %37

37:                                               ; preds = %55, %2
  %38 = load i32, ptr %7, align 4, !tbaa !36
  %39 = icmp slt i32 %38, 7
  br i1 %39, label %40, label %58

40:                                               ; preds = %37
  %41 = load ptr, ptr %5, align 8, !tbaa !22
  %42 = load i32, ptr %7, align 4, !tbaa !36
  %43 = sext i32 %42 to i64
  %44 = getelementptr inbounds [7 x [4 x i8]], ptr @rainbow100, i64 0, i64 %43
  %45 = getelementptr inbounds [4 x i8], ptr %44, i64 0, i64 0
  %46 = load i32, ptr %8, align 4, !tbaa !36
  %47 = load i32, ptr %6, align 4, !tbaa !36
  %48 = load ptr, ptr %5, align 8, !tbaa !22
  %49 = getelementptr inbounds nuw %struct.TestSourceContext, ptr %48, i32 0, i32 2
  %50 = load i32, ptr %49, align 4, !tbaa !47
  %51 = load ptr, ptr %4, align 8, !tbaa !55
  call void @draw_bar(ptr noundef %41, ptr noundef %45, i32 noundef %46, i32 noundef 0, i32 noundef %47, i32 noundef %50, ptr noundef %51)
  %52 = load i32, ptr %6, align 4, !tbaa !36
  %53 = load i32, ptr %8, align 4, !tbaa !36
  %54 = add nsw i32 %53, %52
  store i32 %54, ptr %8, align 4, !tbaa !36
  br label %55

55:                                               ; preds = %40
  %56 = load i32, ptr %7, align 4, !tbaa !36
  %57 = add nsw i32 %56, 1
  store i32 %57, ptr %7, align 4, !tbaa !36
  br label %37, !llvm.loop !152

58:                                               ; preds = %37
  %59 = load ptr, ptr %5, align 8, !tbaa !22
  %60 = load i32, ptr %8, align 4, !tbaa !36
  %61 = load i32, ptr %6, align 4, !tbaa !36
  %62 = load ptr, ptr %5, align 8, !tbaa !22
  %63 = getelementptr inbounds nuw %struct.TestSourceContext, ptr %62, i32 0, i32 2
  %64 = load i32, ptr %63, align 4, !tbaa !47
  %65 = load ptr, ptr %4, align 8, !tbaa !55
  call void @draw_bar(ptr noundef %59, ptr noundef @black0, i32 noundef %60, i32 noundef 0, i32 noundef %61, i32 noundef %64, ptr noundef %65)
  call void @llvm.lifetime.end.p0(i64 8, ptr %9) #15
  call void @llvm.lifetime.end.p0(i64 4, ptr %8) #15
  call void @llvm.lifetime.end.p0(i64 4, ptr %7) #15
  call void @llvm.lifetime.end.p0(i64 4, ptr %6) #15
  call void @llvm.lifetime.end.p0(i64 8, ptr %5) #15
  ret void
}