; Function Attrs: nounwind uwtable
define internal void @pal100bars_fill_picture(ptr noundef readonly captures(none) %0, ptr noundef readonly captures(none) %1) #1 {
  %3 = getelementptr inbounds nuw i8, ptr %0, i64 72
  %4 = load ptr, ptr %3, align 8, !tbaa !4
  %5 = getelementptr inbounds nuw i8, ptr %1, i64 116
  %6 = load i32, ptr %5, align 4, !tbaa !71
  %7 = tail call ptr @av_pix_fmt_desc_get(i32 noundef %6) #20
  %8 = getelementptr inbounds nuw i8, ptr %4, i64 8
  %9 = load i32, ptr %8, align 8, !tbaa !36
  %10 = add nsw i32 %9, 7
  %11 = sdiv i32 %10, 8
  %12 = getelementptr inbounds nuw i8, ptr %7, i64 9
  %13 = load i8, ptr %12, align 1, !tbaa !117
  %14 = zext nneg i8 %13 to i32
  %15 = shl nuw i32 1, %14
  %16 = add nsw i32 %11, -1
  %17 = add i32 %16, %15
  %18 = sub i32 0, %15
  %19 = and i32 %17, %18
  %20 = getelementptr inbounds nuw i8, ptr %4, i64 12
  br label %21

21:                                               ; preds = %2, %21
  %indvars.iv = phi i64 [ 0, %2 ], [ %indvars.iv.next, %21 ]
  %.01920 = phi i32 [ 0, %2 ], [ %24, %21 ]
  %22 = getelementptr inbounds nuw [7 x [4 x i8]], ptr @rainbow100, i64 0, i64 %indvars.iv
  %23 = load i32, ptr %20, align 4, !tbaa !37
  tail call fastcc void @draw_bar(ptr noundef nonnull %4, ptr noundef nonnull %22, i32 noundef %.01920, i32 noundef 0, i32 noundef %19, i32 noundef %23, ptr noundef nonnull %1)
  %24 = add nsw i32 %.01920, %19
  %indvars.iv.next = add nuw nsw i64 %indvars.iv, 1
  %exitcond.not = icmp eq i64 %indvars.iv.next, 7
  br i1 %exitcond.not, label %25, label %21, !llvm.loop !122

25:                                               ; preds = %21
  %26 = load i32, ptr %20, align 4, !tbaa !37
  tail call fastcc void @draw_bar(ptr noundef nonnull %4, ptr noundef nonnull @black0, i32 noundef %24, i32 noundef 0, i32 noundef %19, i32 noundef %26, ptr noundef nonnull %1)
  ret void
}